target datalayout = "e-m:e-p270:32:32-p271:32:32-p272:64:64-i64:64-i128:128-f80:128-n8:16:32:64-S128"
target triple = "x86_64-pc-linux-gnu"

%struct.XXH_INLINE_XXH128_hash_t = type { i64, i64 }

; Function Attrs: nounwind uwtable
define internal { i64, i64 } @XXH_mult64to128(i64 noundef %0, i64 noundef %1) #0 {
  %3 = alloca %struct.XXH_INLINE_XXH128_hash_t, align 8
  %4 = alloca i64, align 8
  %5 = alloca i64, align 8
  %6 = alloca i128, align 16
  store i64 %0, ptr %4, align 8, !tbaa !17
  store i64 %1, ptr %5, align 8, !tbaa !17
  call void @llvm.lifetime.start.p0(i64 16, ptr %6) #11
  %7 = load i64, ptr %4, align 8, !tbaa !17
  %8 = zext i64 %7 to i128
  %9 = load i64, ptr %5, align 8, !tbaa !17
  %10 = zext i64 %9 to i128
  %11 = mul i128 %8, %10
  store i128 %11, ptr %6, align 16, !tbaa !26
  %12 = load i128, ptr %6, align 16, !tbaa !26
  %13 = trunc i128 %12 to i64
  %14 = getelementptr inbounds nuw %struct.XXH_INLINE_XXH128_hash_t, ptr %3, i32 0, i32 0
  store i64 %13, ptr %14, align 8, !tbaa !23
  %15 = load i128, ptr %6, align 16, !tbaa !26
  %16 = lshr i128 %15, 64
  %17 = trunc i128 %16 to i64
  %18 = getelementptr inbounds nuw %struct.XXH_INLINE_XXH128_hash_t, ptr %3, i32 0, i32 1
  store i64 %17, ptr %18, align 8, !tbaa !25
  call void @llvm.lifetime.end.p0(i64 16, ptr %6) #11
  %19 = load { i64, i64 }, ptr %3, align 8
  ret { i64, i64 } %19
}

; Function Attrs: nounwind uwtable
define internal i64 @XXH_read64(ptr noundef %0) #0 {
  %2 = alloca ptr, align 8
  %3 = alloca i64, align 8
  store ptr %0, ptr %2, align 8, !tbaa !8
  call void @llvm.lifetime.start.p0(i64 8, ptr %3) #11
  %4 = load ptr, ptr %2, align 8, !tbaa !8
  call void @llvm.memcpy.p0.p0.i64(ptr align 8 %3, ptr align 1 %4, i64 8, i1 false)
  %5 = load i64, ptr %3, align 8, !tbaa !17
  call void @llvm.lifetime.end.p0(i64 8, ptr %3) #11
  ret i64 %5
}

; Function Attrs: alwaysinline nounwind uwtable
define internal i64 @XXH_xorshift64(i64 noundef %0, i32 noundef %1) #3 {
  %3 = alloca i64, align 8
  %4 = alloca i32, align 4
  store i64 %0, ptr %3, align 8, !tbaa !17
  store i32 %1, ptr %4, align 4, !tbaa !4
  %5 = load i64, ptr %3, align 8, !tbaa !17
  %6 = load i64, ptr %3, align 8, !tbaa !17
  %7 = load i32, ptr %4, align 4, !tbaa !4
  %8 = zext i32 %7 to i64
  %9 = lshr i64 %6, %8
  %10 = xor i64 %5, %9
  ret i64 %10
}

; Function Attrs: nounwind uwtable
define internal i64 @XXH3_mul128_fold64(i64 noundef %0, i64 noundef %1) #0 {
  %3 = alloca i64, align 8
  %4 = alloca i64, align 8
  %5 = alloca %struct.XXH_INLINE_XXH128_hash_t, align 8
  store i64 %0, ptr %3, align 8, !tbaa !17
  store i64 %1, ptr %4, align 8, !tbaa !17
  call void @llvm.lifetime.start.p0(i64 16, ptr %5) #11
  %6 = load i64, ptr %3, align 8, !tbaa !17
  %7 = load i64, ptr %4, align 8, !tbaa !17
  %8 = call { i64, i64 } @XXH_mult64to128(i64 noundef %6, i64 noundef %7)
  %9 = getelementptr inbounds nuw { i64, i64 }, ptr %5, i32 0, i32 0
  %10 = extractvalue { i64, i64 } %8, 0
  store i64 %10, ptr %9, align 8
  %11 = getelementptr inbounds nuw { i64, i64 }, ptr %5, i32 0, i32 1
  %12 = extractvalue { i64, i64 } %8, 1
  store i64 %12, ptr %11, align 8
  %13 = getelementptr inbounds nuw %struct.XXH_INLINE_XXH128_hash_t, ptr %5, i32 0, i32 0
  %14 = load i64, ptr %13, align 8, !tbaa !23
  %15 = getelementptr inbounds nuw %struct.XXH_INLINE_XXH128_hash_t, ptr %5, i32 0, i32 1
  %16 = load i64, ptr %15, align 8, !tbaa !25
  %17 = xor i64 %14, %16
  call void @llvm.lifetime.end.p0(i64 16, ptr %5) #11
  ret i64 %17
}

; Function Attrs: alwaysinline nounwind uwtable
define internal i64 @XXH_readLE64(ptr noundef %0) #3 {
  %2 = alloca ptr, align 8
  store ptr %0, ptr %2, align 8, !tbaa !8
  %3 = load ptr, ptr %2, align 8, !tbaa !8
  %4 = call i64 @XXH_read64(ptr noundef %3)
  ret i64 %4
}

; Function Attrs: nounwind uwtable
define internal i64 @XXH3_avalanche(i64 noundef %0) #0 {
  %2 = alloca i64, align 8
  store i64 %0, ptr %2, align 8, !tbaa !17
  %3 = load i64, ptr %2, align 8, !tbaa !17
  %4 = call i64 @XXH_xorshift64(i64 noundef %3, i32 noundef 37)
  store i64 %4, ptr %2, align 8, !tbaa !17
  %5 = load i64, ptr %2, align 8, !tbaa !17
  %6 = mul i64 %5, 1609587791953885689
  store i64 %6, ptr %2, align 8, !tbaa !17
  %7 = load i64, ptr %2, align 8, !tbaa !17
  %8 = call i64 @XXH_xorshift64(i64 noundef %7, i32 noundef 32)
  store i64 %8, ptr %2, align 8, !tbaa !17
  %9 = load i64, ptr %2, align 8, !tbaa !17
  ret i64 %9
}

; Function Attrs: alwaysinline nounwind uwtable
define internal i64 @XXH3_mix16B(ptr noalias noundef %0, ptr noalias noundef %1, i64 noundef %2) #3 {
  %4 = alloca ptr, align 8
  %5 = alloca ptr, align 8
  %6 = alloca i64, align 8
  %7 = alloca i64, align 8
  %8 = alloca i64, align 8
  store ptr %0, ptr %4, align 8, !tbaa !18
  store ptr %1, ptr %5, align 8, !tbaa !18
  store i64 %2, ptr %6, align 8, !tbaa !17
  call void @llvm.lifetime.start.p0(i64 8, ptr %7) #11
  %9 = load ptr, ptr %4, align 8, !tbaa !18
  %10 = call i64 @XXH_readLE64(ptr noundef %9)
  store i64 %10, ptr %7, align 8, !tbaa !17
  call void @llvm.lifetime.start.p0(i64 8, ptr %8) #11
  %11 = load ptr, ptr %4, align 8, !tbaa !18
  %12 = getelementptr inbounds i8, ptr %11, i64 8
  %13 = call i64 @XXH_readLE64(ptr noundef %12)
  store i64 %13, ptr %8, align 8, !tbaa !17
  %14 = load i64, ptr %7, align 8, !tbaa !17
  %15 = load ptr, ptr %5, align 8, !tbaa !18
  %16 = call i64 @XXH_readLE64(ptr noundef %15)
  %17 = load i64, ptr %6, align 8, !tbaa !17
  %18 = add i64 %16, %17
  %19 = xor i64 %14, %18
  %20 = load i64, ptr %8, align 8, !tbaa !17
  %21 = load ptr, ptr %5, align 8, !tbaa !18
  %22 = getelementptr inbounds i8, ptr %21, i64 8
  %23 = call i64 @XXH_readLE64(ptr noundef %22)
  %24 = load i64, ptr %6, align 8, !tbaa !17
  %25 = sub i64 %23, %24
  %26 = xor i64 %20, %25
  %27 = call i64 @XXH3_mul128_fold64(i64 noundef %19, i64 noundef %26)
  call void @llvm.lifetime.end.p0(i64 8, ptr %8) #11
  call void @llvm.lifetime.end.p0(i64 8, ptr %7) #11
  ret i64 %27
}

; Function Attrs: noinline nounwind uwtable
define internal i64 @XXH3_len_129to240_64b(ptr noalias noundef %0, i64 noundef %1, ptr noalias noundef %2, i64 noundef %3, i64 noundef %4) #4 {
  %6 = alloca ptr, align 8
  %7 = alloca i64, align 8
  %8 = alloca ptr, align 8
  %9 = alloca i64, align 8
  %10 = alloca i64, align 8
  %11 = alloca i64, align 8
  %12 = alloca i32, align 4
  %13 = alloca i32, align 4
  store ptr %0, ptr %6, align 8, !tbaa !18
  store i64 %1, ptr %7, align 8, !tbaa !17
  store ptr %2, ptr %8, align 8, !tbaa !18
  store i64 %3, ptr %9, align 8, !tbaa !17
  store i64 %4, ptr %10, align 8, !tbaa !17
  call void @llvm.lifetime.start.p0(i64 8, ptr %11) #11
  %14 = load i64, ptr %7, align 8, !tbaa !17
  %15 = mul i64 %14, -7046029288634856825
  store i64 %15, ptr %11, align 8, !tbaa !17
  call void @llvm.lifetime.start.p0(i64 4, ptr %12) #11
  %16 = load i64, ptr %7, align 8, !tbaa !17
  %17 = trunc i64 %16 to i32
  %18 = sdiv i32 %17, 16
  store i32 %18, ptr %12, align 4, !tbaa !4
  call void @llvm.lifetime.start.p0(i64 4, ptr %13) #11
  store i32 0, ptr %13, align 4, !tbaa !4
  br label %19

19:                                               ; preds = %37, %5
  %20 = load i32, ptr %13, align 4, !tbaa !4
  %21 = icmp slt i32 %20, 8
  br i1 %21, label %22, label %40

22:                                               ; preds = %19
  %23 = load ptr, ptr %6, align 8, !tbaa !18
  %24 = load i32, ptr %13, align 4, !tbaa !4
  %25 = mul nsw i32 16, %24
  %26 = sext i32 %25 to i64
  %27 = getelementptr inbounds i8, ptr %23, i64 %26
  %28 = load ptr, ptr %8, align 8, !tbaa !18
  %29 = load i32, ptr %13, align 4, !tbaa !4
  %30 = mul nsw i32 16, %29
  %31 = sext i32 %30 to i64
  %32 = getelementptr inbounds i8, ptr %28, i64 %31
  %33 = load i64, ptr %10, align 8, !tbaa !17
  %34 = call i64 @XXH3_mix16B(ptr noundef %27, ptr noundef %32, i64 noundef %33)
  %35 = load i64, ptr %11, align 8, !tbaa !17
  %36 = add i64 %35, %34
  store i64 %36, ptr %11, align 8, !tbaa !17
  br label %37

37:                                               ; preds = %22
  %38 = load i32, ptr %13, align 4, !tbaa !4
  %39 = add nsw i32 %38, 1
  store i32 %39, ptr %13, align 4, !tbaa !4
  br label %19, !llvm.loop !19

40:                                               ; preds = %19
  %41 = load i64, ptr %11, align 8, !tbaa !17
  %42 = call i64 @XXH3_avalanche(i64 noundef %41)
  store i64 %42, ptr %11, align 8, !tbaa !17
  store i32 8, ptr %13, align 4, !tbaa !4
  br label %43

43:                                               ; preds = %64, %40
  %44 = load i32, ptr %13, align 4, !tbaa !4
  %45 = load i32, ptr %12, align 4, !tbaa !4
  %46 = icmp slt i32 %44, %45
  br i1 %46, label %47, label %67

47:                                               ; preds = %43
  %48 = load ptr, ptr %6, align 8, !tbaa !18
  %49 = load i32, ptr %13, align 4, !tbaa !4
  %50 = mul nsw i32 16, %49
  %51 = sext i32 %50 to i64
  %52 = getelementptr inbounds i8, ptr %48, i64 %51
  %53 = load ptr, ptr %8, align 8, !tbaa !18
  %54 = load i32, ptr %13, align 4, !tbaa !4
  %55 = sub nsw i32 %54, 8
  %56 = mul nsw i32 16, %55
  %57 = sext i32 %56 to i64
  %58 = getelementptr inbounds i8, ptr %53, i64 %57
  %59 = getelementptr inbounds i8, ptr %58, i64 3
  %60 = load i64, ptr %10, align 8, !tbaa !17
  %61 = call i64 @XXH3_mix16B(ptr noundef %52, ptr noundef %59, i64 noundef %60)
  %62 = load i64, ptr %11, align 8, !tbaa !17
  %63 = add i64 %62, %61
  store i64 %63, ptr %11, align 8, !tbaa !17
  br label %64

64:                                               ; preds = %47
  %65 = load i32, ptr %13, align 4, !tbaa !4
  %66 = add nsw i32 %65, 1
  store i32 %66, ptr %13, align 4, !tbaa !4
  br label %43, !llvm.loop !21

67:                                               ; preds = %43
  %68 = load ptr, ptr %6, align 8, !tbaa !18
  %69 = load i64, ptr %7, align 8, !tbaa !17
  %70 = getelementptr inbounds nuw i8, ptr %68, i64 %69
  %71 = getelementptr inbounds i8, ptr %70, i64 -16
  %72 = load ptr, ptr %8, align 8, !tbaa !18
  %73 = getelementptr inbounds i8, ptr %72, i64 136
  %74 = getelementptr inbounds i8, ptr %73, i64 -17
  %75 = load i64, ptr %10, align 8, !tbaa !17
  %76 = call i64 @XXH3_mix16B(ptr noundef %71, ptr noundef %74, i64 noundef %75)
  %77 = load i64, ptr %11, align 8, !tbaa !17
  %78 = add i64 %77, %76
  store i64 %78, ptr %11, align 8, !tbaa !17
  %79 = load i64, ptr %11, align 8, !tbaa !17
  %80 = call i64 @XXH3_avalanche(i64 noundef %79)
  call void @llvm.lifetime.end.p0(i64 4, ptr %13) #11
  call void @llvm.lifetime.end.p0(i64 4, ptr %12) #11
  call void @llvm.lifetime.end.p0(i64 8, ptr %11) #11
  ret i64 %80
}