; Function Attrs: nofree noinline norecurse nosync nounwind memory(argmem: read) uwtable
define internal fastcc i64 @XXH3_len_129to240_64b(ptr noalias noundef readonly captures(none) %0, i64 noundef range(i64 129, 241) %1) unnamed_addr #4 {
  %3 = mul i64 %1, -7046029288634856825
  %4 = trunc nuw nsw i64 %1 to i32
  br label %5

5:                                                ; preds = %2, %5
  %indvars.iv = phi i64 [ 0, %2 ], [ %indvars.iv.next, %5 ]
  %.0251 = phi i64 [ %3, %2 ], [ %19, %5 ]
  %6 = shl nuw nsw i64 %indvars.iv, 4
  %7 = getelementptr inbounds nuw i8, ptr %0, i64 %6
  %8 = getelementptr inbounds nuw i8, ptr @XXH3_kSecret, i64 %6
  %.val37 = load i64, ptr %7, align 1
  %9 = getelementptr inbounds nuw i8, ptr %7, i64 8
  %.val36 = load i64, ptr %9, align 1
  %.val35 = load i64, ptr %8, align 16
  %10 = xor i64 %.val35, %.val37
  %11 = getelementptr inbounds nuw i8, ptr %8, i64 8
  %.val34 = load i64, ptr %11, align 8
  %12 = xor i64 %.val34, %.val36
  %13 = zext i64 %10 to i128
  %14 = zext i64 %12 to i128
  %15 = mul nuw i128 %14, %13
  %16 = lshr i128 %15, 64
  %17 = xor i128 %16, %15
  %18 = trunc i128 %17 to i64
  %19 = add i64 %.0251, %18
  %indvars.iv.next = add nuw nsw i64 %indvars.iv, 1
  %exitcond.not = icmp eq i64 %indvars.iv.next, 8
  br i1 %exitcond.not, label %20, label %5, !llvm.loop !74

20:                                               ; preds = %5
  %21 = lshr i32 %4, 4
  %22 = lshr i64 %19, 37
  %23 = xor i64 %22, %19
  %24 = mul i64 %23, 1609587791953885689
  %25 = lshr i64 %24, 32
  %26 = xor i64 %25, %24
  %.not = icmp eq i32 %21, 8
  br i1 %.not, label %._crit_edge, label %.lr.ph.preheader

.lr.ph.preheader:                                 ; preds = %20
  %wide.trip.count = zext nneg i32 %21 to i64
  br label %.lr.ph

.lr.ph:                                           ; preds = %.lr.ph.preheader, %.lr.ph
  %indvars.iv7 = phi i64 [ 8, %.lr.ph.preheader ], [ %indvars.iv.next8, %.lr.ph ]
  %.1263 = phi i64 [ %26, %.lr.ph.preheader ], [ %41, %.lr.ph ]
  %27 = shl nsw i64 %indvars.iv7, 4
  %28 = getelementptr inbounds nuw i8, ptr %0, i64 %27
  %29 = getelementptr i8, ptr @XXH3_kSecret, i64 %27
  %30 = getelementptr i8, ptr %29, i64 -125
  %.val33 = load i64, ptr %28, align 1
  %31 = getelementptr inbounds nuw i8, ptr %28, i64 8
  %.val32 = load i64, ptr %31, align 1
  %.val31 = load i64, ptr %30, align 1
  %32 = xor i64 %.val31, %.val33
  %33 = getelementptr i8, ptr %29, i64 -117
  %.val30 = load i64, ptr %33, align 1
  %34 = xor i64 %.val30, %.val32
  %35 = zext i64 %32 to i128
  %36 = zext i64 %34 to i128
  %37 = mul nuw i128 %36, %35
  %38 = lshr i128 %37, 64
  %39 = xor i128 %38, %37
  %40 = trunc i128 %39 to i64
  %41 = add i64 %.1263, %40
  %indvars.iv.next8 = add nuw nsw i64 %indvars.iv7, 1
  %exitcond10.not = icmp eq i64 %indvars.iv.next8, %wide.trip.count
  br i1 %exitcond10.not, label %._crit_edge, label %.lr.ph, !llvm.loop !75

._crit_edge:                                      ; preds = %.lr.ph, %20
  %.126.lcssa = phi i64 [ %26, %20 ], [ %41, %.lr.ph ]
  %42 = getelementptr inbounds nuw i8, ptr %0, i64 %1
  %43 = getelementptr inbounds i8, ptr %42, i64 -16
  %.val29 = load i64, ptr %43, align 1
  %44 = getelementptr inbounds i8, ptr %42, i64 -8
  %.val28 = load i64, ptr %44, align 1
  %45 = xor i64 %.val29, 8320639771003045937
  %46 = xor i64 %.val28, -1453760514566526364
  %47 = zext i64 %45 to i128
  %48 = zext i64 %46 to i128
  %49 = mul nuw i128 %48, %47
  %50 = lshr i128 %49, 64
  %51 = xor i128 %50, %49
  %52 = trunc i128 %51 to i64
  %53 = add i64 %.126.lcssa, %52
  %54 = lshr i64 %53, 37
  %55 = xor i64 %54, %53
  %56 = mul i64 %55, 1609587791953885689
  %57 = lshr i64 %56, 32
  %58 = xor i64 %57, %56
  ret i64 %58
}